; Function Attrs: mustprogress nofree norecurse nosync nounwind willreturn memory(argmem: write) uwtable
define internal noundef zeroext i1 @"_ZNSt17_Function_handlerIFbRKN32pxrInternal_v0_24__pxrReserved__7TfTokenEEZNS0_26UsdShadeMaterialBindingAPI14BindingsAtPrimC1ERKNS0_7UsdPrimES3_bE3$_0E10_M_managerERSt9_Any_dataRKSC_St18_Manager_operation"(ptr nocapture noundef nonnull writeonly align 8 dereferenceable(16) %0, ptr noundef nonnull align 8 dereferenceable(16) %1, i32 noundef %2) #16 align 2 personality ptr @__gxx_personality_v0 {
  switch i32 %2, label %"_ZNSt14_Function_base13_Base_managerIZN32pxrInternal_v0_24__pxrReserved__26UsdShadeMaterialBindingAPI14BindingsAtPrimC1ERKNS1_7UsdPrimERKNS1_7TfTokenEbE3$_0E10_M_managerERSt9_Any_dataRKSC_St18_Manager_operation.exit" [
    i32 0, label %"_ZNSt14_Function_base13_Base_managerIZN32pxrInternal_v0_24__pxrReserved__26UsdShadeMaterialBindingAPI14BindingsAtPrimC1ERKNS1_7UsdPrimERKNS1_7TfTokenEbE3$_0E10_M_managerERSt9_Any_dataRKSC_St18_Manager_operation.exit.sink.split"
    i32 1, label %4
  ]

4:                                                ; preds = %3
  br label %"_ZNSt14_Function_base13_Base_managerIZN32pxrInternal_v0_24__pxrReserved__26UsdShadeMaterialBindingAPI14BindingsAtPrimC1ERKNS1_7UsdPrimERKNS1_7TfTokenEbE3$_0E10_M_managerERSt9_Any_dataRKSC_St18_Manager_operation.exit.sink.split"

"_ZNSt14_Function_base13_Base_managerIZN32pxrInternal_v0_24__pxrReserved__26UsdShadeMaterialBindingAPI14BindingsAtPrimC1ERKNS1_7UsdPrimERKNS1_7TfTokenEbE3$_0E10_M_managerERSt9_Any_dataRKSC_St18_Manager_operation.exit.sink.split": ; preds = %3, %4
  %.sink = phi ptr [ %1, %4 ], [ @"_ZTIZN32pxrInternal_v0_24__pxrReserved__26UsdShadeMaterialBindingAPI14BindingsAtPrimC1ERKNS_7UsdPrimERKNS_7TfTokenEbE3$_0", %3 ]
  store ptr %.sink, ptr %0, align 8
  br label %"_ZNSt14_Function_base13_Base_managerIZN32pxrInternal_v0_24__pxrReserved__26UsdShadeMaterialBindingAPI14BindingsAtPrimC1ERKNS1_7UsdPrimERKNS1_7TfTokenEbE3$_0E10_M_managerERSt9_Any_dataRKSC_St18_Manager_operation.exit"

"_ZNSt14_Function_base13_Base_managerIZN32pxrInternal_v0_24__pxrReserved__26UsdShadeMaterialBindingAPI14BindingsAtPrimC1ERKNS1_7UsdPrimERKNS1_7TfTokenEbE3$_0E10_M_managerERSt9_Any_dataRKSC_St18_Manager_operation.exit": ; preds = %"_ZNSt14_Function_base13_Base_managerIZN32pxrInternal_v0_24__pxrReserved__26UsdShadeMaterialBindingAPI14BindingsAtPrimC1ERKNS1_7UsdPrimERKNS1_7TfTokenEbE3$_0E10_M_managerERSt9_Any_dataRKSC_St18_Manager_operation.exit.sink.split", %3
  ret i1 false
}